; Function Attrs: mustprogress nofree norecurse nosync nounwind willreturn memory(argmem: readwrite) uwtable
define internal void @LD4_SSE2(ptr noundef captures(none) initializes((0, 4), (32, 36), (64, 68), (96, 100)) %0) #1 {
  %2 = getelementptr inbounds i8, ptr %0, i64 -32
  %3 = load i64, ptr %2, align 1
  %4 = insertelement <2 x i64> <i64 poison, i64 0>, i64 %3, i64 0
  %5 = bitcast <2 x i64> %4 to <16 x i8>
  %6 = shufflevector <16 x i8> %5, <16 x i8> <i8 0, i8 poison, i8 poison, i8 poison, i8 poison, i8 poison, i8 poison, i8 poison, i8 poison, i8 poison, i8 poison, i8 poison, i8 poison, i8 poison, i8 poison, i8 poison>, <16 x i32> <i32 1, i32 2, i32 3, i32 4, i32 5, i32 6, i32 7, i32 8, i32 9, i32 10, i32 11, i32 12, i32 13, i32 14, i32 15, i32 16>
  %7 = shufflevector <16 x i8> %5, <16 x i8> <i8 0, i8 0, i8 poison, i8 poison, i8 poison, i8 poison, i8 poison, i8 poison, i8 poison, i8 poison, i8 poison, i8 poison, i8 poison, i8 poison, i8 poison, i8 poison>, <16 x i32> <i32 2, i32 3, i32 4, i32 5, i32 6, i32 7, i32 poison, i32 poison, i32 10, i32 11, i32 12, i32 13, i32 14, i32 15, i32 16, i32 17>
  %8 = bitcast <16 x i8> %7 to <8 x i16>
  %9 = lshr i64 %3, 56
  %10 = trunc nuw nsw i64 %9 to i16
  %11 = insertelement <8 x i16> %8, i16 %10, i64 3
  %12 = bitcast <8 x i16> %11 to <2 x i64>
  %13 = bitcast <8 x i16> %11 to <16 x i8>
  %14 = tail call <16 x i8> @llvm.x86.sse2.pavg.b(<16 x i8> %5, <16 x i8> %13)
  %15 = xor <2 x i64> %4, %12
  %16 = bitcast <2 x i64> %15 to <16 x i8>
  %17 = and <16 x i8> %16, splat (i8 1)
  %18 = tail call <16 x i8> @llvm.usub.sat.v16i8(<16 x i8> %14, <16 x i8> %17)
  %19 = tail call <16 x i8> @llvm.x86.sse2.pavg.b(<16 x i8> %18, <16 x i8> %6)
  %20 = bitcast <16 x i8> %19 to <4 x i32>
  %21 = extractelement <4 x i32> %20, i64 0
  store i32 %21, ptr %0, align 1
  %22 = getelementptr inbounds nuw i8, ptr %0, i64 32
  %23 = shufflevector <16 x i8> %19, <16 x i8> poison, <16 x i32> <i32 1, i32 2, i32 3, i32 4, i32 poison, i32 poison, i32 poison, i32 poison, i32 poison, i32 poison, i32 poison, i32 poison, i32 poison, i32 poison, i32 poison, i32 poison>
  %24 = bitcast <16 x i8> %23 to <4 x i32>
  %25 = extractelement <4 x i32> %24, i64 0
  store i32 %25, ptr %22, align 1
  %26 = getelementptr inbounds nuw i8, ptr %0, i64 64
  %27 = shufflevector <16 x i8> %19, <16 x i8> poison, <16 x i32> <i32 2, i32 3, i32 4, i32 5, i32 poison, i32 poison, i32 poison, i32 poison, i32 poison, i32 poison, i32 poison, i32 poison, i32 poison, i32 poison, i32 poison, i32 poison>
  %28 = bitcast <16 x i8> %27 to <4 x i32>
  %29 = extractelement <4 x i32> %28, i64 0
  store i32 %29, ptr %26, align 1
  %30 = getelementptr inbounds nuw i8, ptr %0, i64 96
  %31 = shufflevector <16 x i8> %19, <16 x i8> poison, <16 x i32> <i32 3, i32 4, i32 5, i32 6, i32 poison, i32 poison, i32 poison, i32 poison, i32 poison, i32 poison, i32 poison, i32 poison, i32 poison, i32 poison, i32 poison, i32 poison>
  %32 = bitcast <16 x i8> %31 to <4 x i32>
  %33 = extractelement <4 x i32> %32, i64 0
  store i32 %33, ptr %30, align 1
  ret void
}